target datalayout = "e-m:e-p270:32:32-p271:32:32-p272:64:64-i64:64-i128:128-f80:128-n8:16:32:64-S128"
target triple = "x86_64-pc-linux-gnu"

%"class.icu_77::MaybeStackArray" = type <{ ptr, i32, i8, [40 x i8], [3 x i8] }>
%"class.icu_77::StringPiece" = type <{ ptr, i32, [4 x i8] }>
%"class.icu_77::MeasureUnitImpl" = type { i32, %"class.icu_77::MaybeStackVector", %"class.icu_77::CharString", i64 }
%"class.icu_77::MaybeStackVector" = type { %"class.icu_77::MemoryPool" }
%"class.icu_77::MemoryPool" = type { i32, %"class.icu_77::MaybeStackArray.0" }
%"class.icu_77::MaybeStackArray.0" = type { ptr, i32, i8, [8 x ptr] }
%"class.icu_77::CharString" = type { %"class.icu_77::MaybeStackArray", i32, [4 x i8] }
%"class.icu_77::units::ConversionRateInfo" = type { [8 x i8], %"class.icu_77::CharString", %"class.icu_77::CharString", %"class.icu_77::CharString", %"class.icu_77::CharString", %"class.icu_77::CharString", %"class.icu_77::CharString" }
%"struct.icu_77::SingleUnitImpl" = type { i32, i32, i32 }

@_ZN6icu_7715MaybeStackArrayIcLi40EEC1Ev = weak_odr unnamed_addr alias void (ptr), ptr @_ZN6icu_7715MaybeStackArrayIcLi40EEC2Ev
@_ZN6icu_7715MaybeStackArrayIcLi40EED1Ev = weak_odr unnamed_addr alias void (ptr), ptr @_ZN6icu_7715MaybeStackArrayIcLi40EED2Ev

; Function Attrs: mustprogress nounwind uwtable
define linkonce_odr noundef nonnull align 8 dereferenceable(8) ptr @_ZNK6icu_7715MaybeStackArrayIPNS_14SingleUnitImplELi8EEixEl(ptr noundef nonnull align 8 dereferenceable(80) %0, i64 noundef %1) #0 comdat align 2 {
  %3 = alloca ptr, align 8
  %4 = alloca i64, align 8
  store ptr %0, ptr %3, align 8, !tbaa !137
  store i64 %1, ptr %4, align 8, !tbaa !18
  %5 = load ptr, ptr %3, align 8
  %6 = getelementptr inbounds nuw %"class.icu_77::MaybeStackArray.0", ptr %5, i32 0, i32 0
  %7 = load ptr, ptr %6, align 8, !tbaa !139
  %8 = load i64, ptr %4, align 8, !tbaa !18
  %9 = getelementptr inbounds ptr, ptr %7, i64 %8
  ret ptr %9
}

; Function Attrs: mustprogress nounwind uwtable
define weak_odr noundef nonnull align 1 dereferenceable(1) ptr @_ZN6icu_7715MaybeStackArrayIcLi40EEixEl(ptr noundef nonnull align 8 dereferenceable(53) %0, i64 noundef %1) #0 comdat align 2 {
  %3 = alloca ptr, align 8
  %4 = alloca i64, align 8
  store ptr %0, ptr %3, align 8, !tbaa !3
  store i64 %1, ptr %4, align 8, !tbaa !18
  %5 = load ptr, ptr %3, align 8
  %6 = getelementptr inbounds nuw %"class.icu_77::MaybeStackArray", ptr %5, i32 0, i32 0
  %7 = load ptr, ptr %6, align 8, !tbaa !8
  %8 = load i64, ptr %4, align 8, !tbaa !18
  %9 = getelementptr inbounds i8, ptr %7, i64 %8
  ret ptr %9
}

; Function Attrs: mustprogress nounwind uwtable
define linkonce_odr noundef i32 @_ZNK6icu_7716MaybeStackVectorINS_14SingleUnitImplELi8EE6lengthEv(ptr noundef nonnull align 8 dereferenceable(88) %0) #0 comdat align 2 {
  %2 = alloca ptr, align 8
  store ptr %0, ptr %2, align 8, !tbaa !50
  %3 = load ptr, ptr %2, align 8
  %4 = getelementptr inbounds nuw %"class.icu_77::MemoryPool", ptr %3, i32 0, i32 0
  %5 = load i32, ptr %4, align 8, !tbaa !70
  ret i32 %5
}

; Function Attrs: mustprogress nounwind uwtable
define linkonce_odr void @_ZN6icu_7710CharStringD2Ev(ptr noundef nonnull align 8 dereferenceable(60) %0) unnamed_addr #0 comdat align 2 {
  %2 = alloca ptr, align 8
  store ptr %0, ptr %2, align 8, !tbaa !71
  %3 = load ptr, ptr %2, align 8
  %4 = getelementptr inbounds nuw %"class.icu_77::CharString", ptr %3, i32 0, i32 0
  call void @_ZN6icu_7715MaybeStackArrayIcLi40EED1Ev(ptr noundef nonnull align 8 dereferenceable(53) %4) #12
  ret void
}

; Function Attrs: inlinehint mustprogress nounwind uwtable
define internal noundef signext i8 @_ZL9U_FAILURE10UErrorCode(i32 noundef %0) #2 {
  %2 = alloca i32, align 4
  store i32 %0, ptr %2, align 4, !tbaa !15
  %3 = load i32, ptr %2, align 4, !tbaa !15
  %4 = icmp sgt i32 %3, 0
  %5 = zext i1 %4 to i8
  ret i8 %5
}

; Function Attrs: mustprogress uwtable
define linkonce_odr noundef ptr @_ZNK6icu_7716MaybeStackVectorINS_14SingleUnitImplELi8EEixEl(ptr noundef nonnull align 8 dereferenceable(88) %0, i64 noundef %1) #1 comdat align 2 {
  %3 = alloca ptr, align 8
  %4 = alloca i64, align 8
  store ptr %0, ptr %3, align 8, !tbaa !50
  store i64 %1, ptr %4, align 8, !tbaa !18
  %5 = load ptr, ptr %3, align 8
  %6 = getelementptr inbounds nuw %"class.icu_77::MemoryPool", ptr %5, i32 0, i32 1
  %7 = load i64, ptr %4, align 8, !tbaa !18
  %8 = call noundef nonnull align 8 dereferenceable(8) ptr @_ZNK6icu_7715MaybeStackArrayIPNS_14SingleUnitImplELi8EEixEl(ptr noundef nonnull align 8 dereferenceable(80) %6, i64 noundef %7)
  %9 = load ptr, ptr %8, align 8, !tbaa !52
  ret ptr %9
}

; Function Attrs: mustprogress uwtable
define linkonce_odr void @_ZN6icu_7710CharStringC2Ev(ptr noundef nonnull align 8 dereferenceable(60) %0) unnamed_addr #1 comdat align 2 {
  %2 = alloca ptr, align 8
  store ptr %0, ptr %2, align 8, !tbaa !71
  %3 = load ptr, ptr %2, align 8
  %4 = getelementptr inbounds nuw %"class.icu_77::CharString", ptr %3, i32 0, i32 0
  call void @_ZN6icu_7715MaybeStackArrayIcLi40EEC1Ev(ptr noundef nonnull align 8 dereferenceable(53) %4)
  %5 = getelementptr inbounds nuw %"class.icu_77::CharString", ptr %3, i32 0, i32 1
  store i32 0, ptr %5, align 8, !tbaa !73
  %6 = getelementptr inbounds nuw %"class.icu_77::CharString", ptr %3, i32 0, i32 0
  %7 = call noundef nonnull align 1 dereferenceable(1) ptr @_ZN6icu_7715MaybeStackArrayIcLi40EEixEl(ptr noundef nonnull align 8 dereferenceable(53) %6, i64 noundef 0)
  store i8 0, ptr %7, align 1, !tbaa !108
  ret void
}

; Function Attrs: mustprogress uwtable
define internal noundef signext i8 @_ZN6icu_775units12_GLOBAL__N_115checkSimpleUnitERKNS_15MeasureUnitImplER10UErrorCode(ptr noundef nonnull align 8 dereferenceable(168) %0, ptr noundef nonnull align 4 dereferenceable(4) %1) #1 {
  %3 = alloca i8, align 1
  %4 = alloca ptr, align 8
  %5 = alloca ptr, align 8
  %6 = alloca %"struct.icu_77::SingleUnitImpl", align 4
  %7 = alloca i32, align 4
  store ptr %0, ptr %4, align 8, !tbaa !46
  store ptr %1, ptr %5, align 8, !tbaa !22
  %8 = load ptr, ptr %5, align 8, !tbaa !22
  %9 = load i32, ptr %8, align 4, !tbaa !15
  %10 = call noundef signext i8 @_ZL9U_FAILURE10UErrorCode(i32 noundef %9)
  %11 = icmp ne i8 %10, 0
  br i1 %11, label %12, label %13

12:                                               ; preds = %2
  store i8 0, ptr %3, align 1
  br label %39

13:                                               ; preds = %2
  %14 = load ptr, ptr %4, align 8, !tbaa !46
  %15 = getelementptr inbounds nuw %"class.icu_77::MeasureUnitImpl", ptr %14, i32 0, i32 0
  %16 = load i32, ptr %15, align 8, !tbaa !60
  %17 = icmp ne i32 %16, 0
  br i1 %17, label %18, label %19

18:                                               ; preds = %13
  store i8 0, ptr %3, align 1
  br label %39

19:                                               ; preds = %13
  %20 = load ptr, ptr %4, align 8, !tbaa !46
  %21 = getelementptr inbounds nuw %"class.icu_77::MeasureUnitImpl", ptr %20, i32 0, i32 1
  %22 = call noundef i32 @_ZNK6icu_7716MaybeStackVectorINS_14SingleUnitImplELi8EE6lengthEv(ptr noundef nonnull align 8 dereferenceable(88) %21)
  %23 = icmp eq i32 %22, 0
  br i1 %23, label %24, label %25

24:                                               ; preds = %19
  store i8 1, ptr %3, align 1
  br label %39

25:                                               ; preds = %19
  call void @llvm.lifetime.start.p0(i64 12, ptr %6) #12
  %26 = load ptr, ptr %4, align 8, !tbaa !46
  %27 = getelementptr inbounds nuw %"class.icu_77::MeasureUnitImpl", ptr %26, i32 0, i32 1
  %28 = call noundef ptr @_ZNK6icu_7716MaybeStackVectorINS_14SingleUnitImplELi8EEixEl(ptr noundef nonnull align 8 dereferenceable(88) %27, i64 noundef 0)
  call void @llvm.memcpy.p0.p0.i64(ptr align 4 %6, ptr align 4 %28, i64 12, i1 false)
  %29 = getelementptr inbounds nuw %"struct.icu_77::SingleUnitImpl", ptr %6, i32 0, i32 2
  %30 = load i32, ptr %29, align 4, !tbaa !56
  %31 = icmp ne i32 %30, 1
  br i1 %31, label %36, label %32

32:                                               ; preds = %25
  %33 = getelementptr inbounds nuw %"struct.icu_77::SingleUnitImpl", ptr %6, i32 0, i32 1
  %34 = load i32, ptr %33, align 4, !tbaa !109
  %35 = icmp ne i32 %34, 30
  br i1 %35, label %36, label %37

36:                                               ; preds = %32, %25
  store i8 0, ptr %3, align 1
  store i32 1, ptr %7, align 4
  br label %38

37:                                               ; preds = %32
  store i8 1, ptr %3, align 1
  store i32 1, ptr %7, align 4
  br label %38

38:                                               ; preds = %37, %36
  call void @llvm.lifetime.end.p0(i64 12, ptr %6) #12
  br label %39

39:                                               ; preds = %38, %24, %18, %12
  %40 = load i8, ptr %3, align 1
  ret i8 %40
}

; Function Attrs: mustprogress uwtable
define internal void @_ZN6icu_775units12_GLOBAL__N_121getSpecialMappingNameERKNS_15MeasureUnitImplERKNS0_15ConversionRatesER10UErrorCode(ptr dead_on_unwind noalias writable sret(%"class.icu_77::CharString") align 8 %0, ptr noundef nonnull align 8 dereferenceable(168) %1, ptr noundef nonnull align 8 dereferenceable(88) %2, ptr noundef nonnull align 4 dereferenceable(4) %3) #1 personality ptr @__gxx_personality_v0 {
  %5 = alloca ptr, align 8
  %6 = alloca ptr, align 8
  %7 = alloca ptr, align 8
  %8 = alloca ptr, align 8
  %9 = alloca %"struct.icu_77::SingleUnitImpl", align 4
  %10 = alloca ptr, align 8
  %11 = alloca %"class.icu_77::StringPiece", align 8
  %12 = alloca i32, align 4
  %13 = alloca i1, align 1
  %14 = alloca ptr, align 8
  %15 = alloca i32, align 4
  store ptr %0, ptr %5, align 8
  store ptr %1, ptr %6, align 8, !tbaa !46
  store ptr %2, ptr %7, align 8, !tbaa !48
  store ptr %3, ptr %8, align 8, !tbaa !22
  %16 = load ptr, ptr %6, align 8, !tbaa !46
  %17 = load ptr, ptr %8, align 8, !tbaa !22
  %18 = call noundef signext i8 @_ZN6icu_775units12_GLOBAL__N_115checkSimpleUnitERKNS_15MeasureUnitImplER10UErrorCode(ptr noundef nonnull align 8 dereferenceable(168) %16, ptr noundef nonnull align 4 dereferenceable(4) %17)
  %19 = icmp ne i8 %18, 0
  br i1 %19, label %21, label %20

20:                                               ; preds = %4
  call void @_ZN6icu_7710CharStringC2Ev(ptr noundef nonnull align 8 dereferenceable(60) %0)
  br label %57

21:                                               ; preds = %4
  call void @llvm.lifetime.start.p0(i64 12, ptr %9) #12
  %22 = load ptr, ptr %6, align 8, !tbaa !46
  %23 = getelementptr inbounds nuw %"class.icu_77::MeasureUnitImpl", ptr %22, i32 0, i32 1
  %24 = call noundef ptr @_ZNK6icu_7716MaybeStackVectorINS_14SingleUnitImplELi8EEixEl(ptr noundef nonnull align 8 dereferenceable(88) %23, i64 noundef 0)
  call void @llvm.memcpy.p0.p0.i64(ptr align 4 %9, ptr align 4 %24, i64 12, i1 false)
  call void @llvm.lifetime.start.p0(i64 8, ptr %10) #12
  %25 = load ptr, ptr %7, align 8, !tbaa !48
  %26 = call noundef ptr @_ZNK6icu_7714SingleUnitImpl15getSimpleUnitIDEv(ptr noundef nonnull align 4 dereferenceable(12) %9)
  call void @_ZN6icu_7711StringPieceC1EPKc(ptr noundef nonnull align 8 dereferenceable(12) %11, ptr noundef %26)
  %27 = load ptr, ptr %8, align 8, !tbaa !22
  %28 = getelementptr inbounds nuw { ptr, i32 }, ptr %11, i32 0, i32 0
  %29 = load ptr, ptr %28, align 8
  %30 = getelementptr inbounds nuw { ptr, i32 }, ptr %11, i32 0, i32 1
  %31 = load i32, ptr %30, align 8
  %32 = call noundef ptr @_ZNK6icu_775units15ConversionRates21extractConversionInfoENS_11StringPieceER10UErrorCode(ptr noundef nonnull align 8 dereferenceable(88) %25, ptr %29, i32 %31, ptr noundef nonnull align 4 dereferenceable(4) %27)
  store ptr %32, ptr %10, align 8, !tbaa !54
  %33 = load ptr, ptr %8, align 8, !tbaa !22
  %34 = load i32, ptr %33, align 4, !tbaa !15
  %35 = call noundef signext i8 @_ZL9U_FAILURE10UErrorCode(i32 noundef %34)
  %36 = icmp ne i8 %35, 0
  br i1 %36, label %37, label %38

37:                                               ; preds = %21
  call void @_ZN6icu_7710CharStringC2Ev(ptr noundef nonnull align 8 dereferenceable(60) %0)
  store i32 1, ptr %12, align 4
  br label %56

38:                                               ; preds = %21
  %39 = load ptr, ptr %10, align 8, !tbaa !54
  %40 = icmp eq ptr %39, null
  br i1 %40, label %41, label %43

41:                                               ; preds = %38
  %42 = load ptr, ptr %8, align 8, !tbaa !22
  store i32 5, ptr %42, align 4, !tbaa !15
  call void @_ZN6icu_7710CharStringC2Ev(ptr noundef nonnull align 8 dereferenceable(60) %0)
  store i32 1, ptr %12, align 4
  br label %56

43:                                               ; preds = %38
  store i1 false, ptr %13, align 1
  call void @_ZN6icu_7710CharStringC2Ev(ptr noundef nonnull align 8 dereferenceable(60) %0)
  %44 = load ptr, ptr %10, align 8, !tbaa !54
  %45 = getelementptr inbounds nuw %"class.icu_77::units::ConversionRateInfo", ptr %44, i32 0, i32 5
  %46 = load ptr, ptr %8, align 8, !tbaa !22
  %47 = invoke noundef nonnull align 8 dereferenceable(60) ptr @_ZN6icu_7710CharString8copyFromERKS0_R10UErrorCode(ptr noundef nonnull align 8 dereferenceable(60) %0, ptr noundef nonnull align 8 dereferenceable(60) %45, ptr noundef nonnull align 4 dereferenceable(4) %46)
          to label %48 unwind label %50

48:                                               ; preds = %43
  store i1 true, ptr %13, align 1
  store i32 1, ptr %12, align 4
  %49 = load i1, ptr %13, align 1
  br i1 %49, label %55, label %54

50:                                               ; preds = %43
  %51 = landingpad { ptr, i32 }
          cleanup
  %52 = extractvalue { ptr, i32 } %51, 0
  store ptr %52, ptr %14, align 8
  %53 = extractvalue { ptr, i32 } %51, 1
  store i32 %53, ptr %15, align 4
  call void @_ZN6icu_7710CharStringD2Ev(ptr noundef nonnull align 8 dereferenceable(60) %0) #12
  call void @llvm.lifetime.end.p0(i64 8, ptr %10) #12
  call void @llvm.lifetime.end.p0(i64 12, ptr %9) #12
  br label %58

54:                                               ; preds = %48
  call void @_ZN6icu_7710CharStringD2Ev(ptr noundef nonnull align 8 dereferenceable(60) %0) #12
  br label %55

55:                                               ; preds = %54, %48
  br label %56

56:                                               ; preds = %55, %41, %37
  call void @llvm.lifetime.end.p0(i64 8, ptr %10) #12
  call void @llvm.lifetime.end.p0(i64 12, ptr %9) #12
  br label %57

57:                                               ; preds = %56, %20
  ret void

58:                                               ; preds = %50
  %59 = load ptr, ptr %14, align 8
  %60 = load i32, ptr %15, align 4
  %61 = insertvalue { ptr, i32 } poison, ptr %59, 0
  %62 = insertvalue { ptr, i32 } %61, i32 %60, 1
  resume { ptr, i32 } %62
}