; Function Attrs: mustprogress uwtable
define internal fastcc void @_ZN6icu_775units12_GLOBAL__N_121getSpecialMappingNameERKNS_15MeasureUnitImplERKNS0_15ConversionRatesER10UErrorCode(ptr dead_on_unwind noalias nonnull writable align 8 %0, ptr noundef nonnull readonly align 8 captures(none) dereferenceable(168) %1, ptr noundef nonnull align 8 dereferenceable(88) %2, ptr noundef nonnull align 4 dereferenceable(4) %3) unnamed_addr #1 personality ptr @__gxx_personality_v0 {
  %5 = alloca %"struct.icu_77::SingleUnitImpl", align 4
  %6 = alloca %"class.icu_77::StringPiece", align 8
  %.val = load i32, ptr %3, align 4, !tbaa !13
  %7 = icmp slt i32 %.val, 1
  %8 = load i32, ptr %1, align 8
  %.not6.i = icmp eq i32 %8, 0
  %or.cond7.i = select i1 %7, i1 %.not6.i, i1 false
  br i1 %or.cond7.i, label %9, label %_ZN6icu_775units12_GLOBAL__N_115checkSimpleUnitERKNS_15MeasureUnitImplER10UErrorCode.exit.thread

9:                                                ; preds = %4
  %10 = getelementptr inbounds nuw i8, ptr %1, i64 8
  %11 = load i32, ptr %10, align 8, !tbaa !43
  %12 = icmp eq i32 %11, 0
  %.phi.trans.insert = getelementptr inbounds nuw i8, ptr %1, i64 16
  %.pre = load ptr, ptr %.phi.trans.insert, align 8, !tbaa !44
  %.pre20 = load ptr, ptr %.pre, align 8, !tbaa !51
  br i1 %12, label %_ZN6icu_775units12_GLOBAL__N_115checkSimpleUnitERKNS_15MeasureUnitImplER10UErrorCode.exit.thread15, label %_ZN6icu_775units12_GLOBAL__N_115checkSimpleUnitERKNS_15MeasureUnitImplER10UErrorCode.exit

_ZN6icu_775units12_GLOBAL__N_115checkSimpleUnitERKNS_15MeasureUnitImplER10UErrorCode.exit: ; preds = %9
  %.sroa.3.0..sroa_idx.i = getelementptr inbounds nuw i8, ptr %.pre20, i64 4
  %.sroa.3.0.copyload.i = load i32, ptr %.sroa.3.0..sroa_idx.i, align 4
  %.sroa.4.0..sroa_idx.i = getelementptr inbounds nuw i8, ptr %.pre20, i64 8
  %.sroa.4.0.copyload.i = load i32, ptr %.sroa.4.0..sroa_idx.i, align 4
  %13 = icmp ne i32 %.sroa.4.0.copyload.i, 1
  %14 = icmp ne i32 %.sroa.3.0.copyload.i, 30
  %or.cond.not.i.not = select i1 %13, i1 true, i1 %14
  br i1 %or.cond.not.i.not, label %_ZN6icu_775units12_GLOBAL__N_115checkSimpleUnitERKNS_15MeasureUnitImplER10UErrorCode.exit.thread, label %_ZN6icu_775units12_GLOBAL__N_115checkSimpleUnitERKNS_15MeasureUnitImplER10UErrorCode.exit.thread15

_ZN6icu_775units12_GLOBAL__N_115checkSimpleUnitERKNS_15MeasureUnitImplER10UErrorCode.exit.thread: ; preds = %4, %_ZN6icu_775units12_GLOBAL__N_115checkSimpleUnitERKNS_15MeasureUnitImplER10UErrorCode.exit
  tail call void @_ZN6icu_7715MaybeStackArrayIcLi40EEC1Ev(ptr noundef nonnull align 8 dereferenceable(60) %0)
  %15 = getelementptr inbounds nuw i8, ptr %0, i64 56
  store i32 0, ptr %15, align 8, !tbaa !47
  %16 = load ptr, ptr %0, align 8, !tbaa !3
  store i8 0, ptr %16, align 1, !tbaa !48
  br label %37

_ZN6icu_775units12_GLOBAL__N_115checkSimpleUnitERKNS_15MeasureUnitImplER10UErrorCode.exit.thread15: ; preds = %9, %_ZN6icu_775units12_GLOBAL__N_115checkSimpleUnitERKNS_15MeasureUnitImplER10UErrorCode.exit
  call void @llvm.lifetime.start.p0(i64 12, ptr nonnull %5) #21
  call void @llvm.memcpy.p0.p0.i64(ptr noundef nonnull align 4 dereferenceable(12) %5, ptr noundef nonnull align 4 dereferenceable(12) %.pre20, i64 12, i1 false)
  %17 = call noundef ptr @_ZNK6icu_7714SingleUnitImpl15getSimpleUnitIDEv(ptr noundef nonnull align 4 dereferenceable(12) %5)
  call void @_ZN6icu_7711StringPieceC1EPKc(ptr noundef nonnull align 8 dereferenceable(12) %6, ptr noundef %17)
  %18 = load ptr, ptr %6, align 8
  %19 = getelementptr inbounds nuw i8, ptr %6, i64 8
  %20 = load i32, ptr %19, align 8
  %21 = call noundef ptr @_ZNK6icu_775units15ConversionRates21extractConversionInfoENS_11StringPieceER10UErrorCode(ptr noundef nonnull align 8 dereferenceable(88) %2, ptr %18, i32 %20, ptr noundef nonnull align 4 dereferenceable(4) %3)
  %22 = load i32, ptr %3, align 4, !tbaa !13
  %23 = icmp slt i32 %22, 1
  br i1 %23, label %24, label %.sink.split

24:                                               ; preds = %_ZN6icu_775units12_GLOBAL__N_115checkSimpleUnitERKNS_15MeasureUnitImplER10UErrorCode.exit.thread15
  %25 = icmp eq ptr %21, null
  br i1 %25, label %26, label %27

26:                                               ; preds = %24
  store i32 5, ptr %3, align 4, !tbaa !13
  br label %.sink.split

27:                                               ; preds = %24
  call void @_ZN6icu_7715MaybeStackArrayIcLi40EEC1Ev(ptr noundef nonnull align 8 dereferenceable(60) %0)
  %28 = getelementptr inbounds nuw i8, ptr %0, i64 56
  store i32 0, ptr %28, align 8, !tbaa !47
  %29 = load ptr, ptr %0, align 8, !tbaa !3
  store i8 0, ptr %29, align 1, !tbaa !48
  %30 = getelementptr inbounds nuw i8, ptr %21, i64 264
  %31 = invoke noundef nonnull align 8 dereferenceable(60) ptr @_ZN6icu_7710CharString8copyFromERKS0_R10UErrorCode(ptr noundef nonnull align 8 dereferenceable(60) %0, ptr noundef nonnull align 8 dereferenceable(60) %30, ptr noundef nonnull align 4 dereferenceable(4) %3)
          to label %36 unwind label %32

32:                                               ; preds = %27
  %33 = landingpad { ptr, i32 }
          cleanup
  call void @_ZN6icu_7715MaybeStackArrayIcLi40EED1Ev(ptr noundef nonnull align 8 dereferenceable(60) %0) #21
  call void @llvm.lifetime.end.p0(i64 12, ptr nonnull %5) #21
  resume { ptr, i32 } %33

.sink.split:                                      ; preds = %_ZN6icu_775units12_GLOBAL__N_115checkSimpleUnitERKNS_15MeasureUnitImplER10UErrorCode.exit.thread15, %26
  call void @_ZN6icu_7715MaybeStackArrayIcLi40EEC1Ev(ptr noundef nonnull align 8 dereferenceable(60) %0)
  %34 = getelementptr inbounds nuw i8, ptr %0, i64 56
  store i32 0, ptr %34, align 8, !tbaa !47
  %35 = load ptr, ptr %0, align 8, !tbaa !3
  store i8 0, ptr %35, align 1, !tbaa !48
  br label %36

36:                                               ; preds = %.sink.split, %27
  call void @llvm.lifetime.end.p0(i64 12, ptr nonnull %5) #21
  br label %37

37:                                               ; preds = %36, %_ZN6icu_775units12_GLOBAL__N_115checkSimpleUnitERKNS_15MeasureUnitImplER10UErrorCode.exit.thread
  ret void
}